; Function Attrs: nounwind sspstrong uwtable
define internal noundef i32 @put_msix_state(ptr noundef %f, ptr noundef readonly captures(none) %pv, i64 %size, ptr readnone captures(none) %field, ptr readnone captures(none) %vmdesc) #0 {
entry:
  %cap_present.i.i = getelementptr inbounds nuw i8, ptr %pv, i64 1260
  %0 = load i32, ptr %cap_present.i.i, align 4
  %and.i.i = and i32 %0, 2
  %tobool.not.i = icmp eq i32 %and.i.i, 0
  br i1 %tobool.not.i, label %msix_save.exit, label %if.end.i

if.end.i:                                         ; preds = %entry
  %msix_entries_nr.i = getelementptr inbounds nuw i8, ptr %pv, i64 1268
  %1 = load i32, ptr %msix_entries_nr.i, align 4
  %msix_table.i = getelementptr inbounds nuw i8, ptr %pv, i64 1272
  %2 = load ptr, ptr %msix_table.i, align 8
  %mul.i = shl i32 %1, 4
  %conv.i = zext i32 %mul.i to i64
  tail call void @qemu_put_buffer(ptr noundef %f, ptr noundef %2, i64 noundef %conv.i) #14
  %msix_pba.i = getelementptr inbounds nuw i8, ptr %pv, i64 1280
  %3 = load ptr, ptr %msix_pba.i, align 16
  %sub.i = add i32 %1, 7
  %div6.i = lshr i32 %sub.i, 3
  %conv1.i = zext nneg i32 %div6.i to i64
  tail call void @qemu_put_buffer(ptr noundef %f, ptr noundef %3, i64 noundef %conv1.i) #14
  br label %msix_save.exit

msix_save.exit:                                   ; preds = %entry, %if.end.i
  ret i32 0
}